target datalayout = "e-m:e-p270:32:32-p271:32:32-p272:64:64-i64:64-i128:128-f80:128-n8:16:32:64-S128"
target triple = "x86_64-pc-linux-gnu"

%struct.st__table = type { ptr, ptr, i32, i32, i32, i32, double, ptr }
%struct.st__table_entry = type { ptr, ptr, ptr }

; Function Attrs: inlinehint nounwind uwtable
define internal i32 @Abc_AbsInt(i32 noundef %0) #4 {
  %2 = alloca i32, align 4
  store i32 %0, ptr %2, align 4, !tbaa !7
  %3 = load i32, ptr %2, align 4, !tbaa !7
  %4 = icmp slt i32 %3, 0
  br i1 %4, label %5, label %8

5:                                                ; preds = %1
  %6 = load i32, ptr %2, align 4, !tbaa !7
  %7 = sub nsw i32 0, %6
  br label %10

8:                                                ; preds = %1
  %9 = load i32, ptr %2, align 4, !tbaa !7
  br label %10

10:                                               ; preds = %8, %5
  %11 = phi i32 [ %7, %5 ], [ %9, %8 ]
  ret i32 %11
}

; Function Attrs: nounwind uwtable
define i32 @st__lookup_int(ptr noundef %0, ptr noundef %1, ptr noundef %2) #0 {
  %4 = alloca i32, align 4
  %5 = alloca ptr, align 8
  %6 = alloca ptr, align 8
  %7 = alloca ptr, align 8
  %8 = alloca i32, align 4
  %9 = alloca ptr, align 8
  %10 = alloca ptr, align 8
  %11 = alloca i32, align 4
  store ptr %0, ptr %5, align 8, !tbaa !11
  store ptr %1, ptr %6, align 8, !tbaa !32
  store ptr %2, ptr %7, align 8, !tbaa !39
  call void @llvm.lifetime.start.p0(i64 4, ptr %8) #6
  call void @llvm.lifetime.start.p0(i64 8, ptr %9) #6
  call void @llvm.lifetime.start.p0(i64 8, ptr %10) #6
  %12 = load ptr, ptr %5, align 8, !tbaa !11
  %13 = getelementptr inbounds nuw %struct.st__table, ptr %12, i32 0, i32 1
  %14 = load ptr, ptr %13, align 8, !tbaa !16
  %15 = icmp eq ptr %14, @st__ptrhash
  br i1 %15, label %16, label %26

16:                                               ; preds = %3
  %17 = load ptr, ptr %6, align 8, !tbaa !32
  %18 = ptrtoint ptr %17 to i64
  %19 = lshr i64 %18, 2
  %20 = load ptr, ptr %5, align 8, !tbaa !11
  %21 = getelementptr inbounds nuw %struct.st__table, ptr %20, i32 0, i32 2
  %22 = load i32, ptr %21, align 8, !tbaa !21
  %23 = sext i32 %22 to i64
  %24 = urem i64 %19, %23
  %25 = trunc i64 %24 to i32
  br label %51

26:                                               ; preds = %3
  %27 = load ptr, ptr %5, align 8, !tbaa !11
  %28 = getelementptr inbounds nuw %struct.st__table, ptr %27, i32 0, i32 1
  %29 = load ptr, ptr %28, align 8, !tbaa !16
  %30 = icmp eq ptr %29, @st__numhash
  br i1 %30, label %31, label %40

31:                                               ; preds = %26
  %32 = load ptr, ptr %6, align 8, !tbaa !32
  %33 = ptrtoint ptr %32 to i64
  %34 = trunc i64 %33 to i32
  %35 = call i32 @Abc_AbsInt(i32 noundef %34)
  %36 = load ptr, ptr %5, align 8, !tbaa !11
  %37 = getelementptr inbounds nuw %struct.st__table, ptr %36, i32 0, i32 2
  %38 = load i32, ptr %37, align 8, !tbaa !21
  %39 = srem i32 %35, %38
  br label %49

40:                                               ; preds = %26
  %41 = load ptr, ptr %5, align 8, !tbaa !11
  %42 = getelementptr inbounds nuw %struct.st__table, ptr %41, i32 0, i32 1
  %43 = load ptr, ptr %42, align 8, !tbaa !16
  %44 = load ptr, ptr %6, align 8, !tbaa !32
  %45 = load ptr, ptr %5, align 8, !tbaa !11
  %46 = getelementptr inbounds nuw %struct.st__table, ptr %45, i32 0, i32 2
  %47 = load i32, ptr %46, align 8, !tbaa !21
  %48 = call i32 %43(ptr noundef %44, i32 noundef %47)
  br label %49

49:                                               ; preds = %40, %31
  %50 = phi i32 [ %39, %31 ], [ %48, %40 ]
  br label %51

51:                                               ; preds = %49, %16
  %52 = phi i32 [ %25, %16 ], [ %50, %49 ]
  store i32 %52, ptr %8, align 4, !tbaa !7
  %53 = load ptr, ptr %5, align 8, !tbaa !11
  %54 = getelementptr inbounds nuw %struct.st__table, ptr %53, i32 0, i32 7
  %55 = load ptr, ptr %54, align 8, !tbaa !22
  %56 = load i32, ptr %8, align 4, !tbaa !7
  %57 = sext i32 %56 to i64
  %58 = getelementptr inbounds ptr, ptr %55, i64 %57
  store ptr %58, ptr %10, align 8, !tbaa !35
  %59 = load ptr, ptr %10, align 8, !tbaa !35
  %60 = load ptr, ptr %59, align 8, !tbaa !23
  store ptr %60, ptr %9, align 8, !tbaa !23
  br label %61

61:                                               ; preds = %100, %51
  %62 = load ptr, ptr %9, align 8, !tbaa !23
  %63 = icmp ne ptr %62, null
  br i1 %63, label %64, label %98

64:                                               ; preds = %61
  %65 = load ptr, ptr %5, align 8, !tbaa !11
  %66 = getelementptr inbounds nuw %struct.st__table, ptr %65, i32 0, i32 0
  %67 = load ptr, ptr %66, align 8, !tbaa !13
  %68 = icmp eq ptr %67, @st__numcmp
  br i1 %68, label %74, label %69

69:                                               ; preds = %64
  %70 = load ptr, ptr %5, align 8, !tbaa !11
  %71 = getelementptr inbounds nuw %struct.st__table, ptr %70, i32 0, i32 0
  %72 = load ptr, ptr %71, align 8, !tbaa !13
  %73 = icmp eq ptr %72, @st__ptrcmp
  br i1 %73, label %74, label %83

74:                                               ; preds = %69, %64
  %75 = load ptr, ptr %6, align 8, !tbaa !32
  %76 = load ptr, ptr %9, align 8, !tbaa !23
  %77 = getelementptr inbounds nuw %struct.st__table_entry, ptr %76, i32 0, i32 0
  %78 = load ptr, ptr %77, align 8, !tbaa !36
  %79 = icmp ne ptr %75, %78
  %80 = zext i1 %79 to i32
  %81 = icmp eq i32 %80, 0
  %82 = zext i1 %81 to i32
  br label %94

83:                                               ; preds = %69
  %84 = load ptr, ptr %5, align 8, !tbaa !11
  %85 = getelementptr inbounds nuw %struct.st__table, ptr %84, i32 0, i32 0
  %86 = load ptr, ptr %85, align 8, !tbaa !13
  %87 = load ptr, ptr %6, align 8, !tbaa !32
  %88 = load ptr, ptr %9, align 8, !tbaa !23
  %89 = getelementptr inbounds nuw %struct.st__table_entry, ptr %88, i32 0, i32 0
  %90 = load ptr, ptr %89, align 8, !tbaa !36
  %91 = call i32 %86(ptr noundef %87, ptr noundef %90)
  %92 = icmp eq i32 %91, 0
  %93 = zext i1 %92 to i32
  br label %94

94:                                               ; preds = %83, %74
  %95 = phi i32 [ %82, %74 ], [ %93, %83 ]
  %96 = icmp ne i32 %95, 0
  %97 = xor i1 %96, true
  br label %98

98:                                               ; preds = %94, %61
  %99 = phi i1 [ false, %61 ], [ %97, %94 ]
  br i1 %99, label %100, label %105

100:                                              ; preds = %98
  %101 = load ptr, ptr %9, align 8, !tbaa !23
  %102 = getelementptr inbounds nuw %struct.st__table_entry, ptr %101, i32 0, i32 2
  store ptr %102, ptr %10, align 8, !tbaa !35
  %103 = load ptr, ptr %10, align 8, !tbaa !35
  %104 = load ptr, ptr %103, align 8, !tbaa !23
  store ptr %104, ptr %9, align 8, !tbaa !23
  br label %61, !llvm.loop !41

105:                                              ; preds = %98
  %106 = load ptr, ptr %9, align 8, !tbaa !23
  %107 = icmp ne ptr %106, null
  br i1 %107, label %108, label %134

108:                                              ; preds = %105
  %109 = load ptr, ptr %5, align 8, !tbaa !11
  %110 = getelementptr inbounds nuw %struct.st__table, ptr %109, i32 0, i32 5
  %111 = load i32, ptr %110, align 4, !tbaa !20
  %112 = icmp ne i32 %111, 0
  br i1 %112, label %113, label %134

113:                                              ; preds = %108
  %114 = load ptr, ptr %9, align 8, !tbaa !23
  %115 = getelementptr inbounds nuw %struct.st__table_entry, ptr %114, i32 0, i32 2
  %116 = load ptr, ptr %115, align 8, !tbaa !27
  %117 = load ptr, ptr %10, align 8, !tbaa !35
  store ptr %116, ptr %117, align 8, !tbaa !23
  %118 = load ptr, ptr %5, align 8, !tbaa !11
  %119 = getelementptr inbounds nuw %struct.st__table, ptr %118, i32 0, i32 7
  %120 = load ptr, ptr %119, align 8, !tbaa !22
  %121 = load i32, ptr %8, align 4, !tbaa !7
  %122 = sext i32 %121 to i64
  %123 = getelementptr inbounds ptr, ptr %120, i64 %122
  %124 = load ptr, ptr %123, align 8, !tbaa !23
  %125 = load ptr, ptr %9, align 8, !tbaa !23
  %126 = getelementptr inbounds nuw %struct.st__table_entry, ptr %125, i32 0, i32 2
  store ptr %124, ptr %126, align 8, !tbaa !27
  %127 = load ptr, ptr %9, align 8, !tbaa !23
  %128 = load ptr, ptr %5, align 8, !tbaa !11
  %129 = getelementptr inbounds nuw %struct.st__table, ptr %128, i32 0, i32 7
  %130 = load ptr, ptr %129, align 8, !tbaa !22
  %131 = load i32, ptr %8, align 4, !tbaa !7
  %132 = sext i32 %131 to i64
  %133 = getelementptr inbounds ptr, ptr %130, i64 %132
  store ptr %127, ptr %133, align 8, !tbaa !23
  br label %134

134:                                              ; preds = %113, %108, %105
  %135 = load ptr, ptr %9, align 8, !tbaa !23
  %136 = icmp eq ptr %135, null
  br i1 %136, label %137, label %138

137:                                              ; preds = %134
  store i32 0, ptr %4, align 4
  store i32 1, ptr %11, align 4
  br label %149

138:                                              ; preds = %134
  %139 = load ptr, ptr %7, align 8, !tbaa !39
  %140 = icmp ne ptr %139, null
  br i1 %140, label %141, label %148

141:                                              ; preds = %138
  %142 = load ptr, ptr %9, align 8, !tbaa !23
  %143 = getelementptr inbounds nuw %struct.st__table_entry, ptr %142, i32 0, i32 1
  %144 = load ptr, ptr %143, align 8, !tbaa !38
  %145 = ptrtoint ptr %144 to i64
  %146 = trunc i64 %145 to i32
  %147 = load ptr, ptr %7, align 8, !tbaa !39
  store i32 %146, ptr %147, align 4, !tbaa !7
  br label %148

148:                                              ; preds = %141, %138
  store i32 1, ptr %4, align 4
  store i32 1, ptr %11, align 4
  br label %149

149:                                              ; preds = %148, %137
  call void @llvm.lifetime.end.p0(i64 8, ptr %10) #6
  call void @llvm.lifetime.end.p0(i64 8, ptr %9) #6
  call void @llvm.lifetime.end.p0(i64 4, ptr %8) #6
  %150 = load i32, ptr %4, align 4
  ret i32 %150
}